; Function Attrs: mustprogress nounwind uwtable
define dso_local void @_ZN16Vmycpu_top__SymsD2Ev(ptr noundef nonnull align 64 dereferenceable(19520) %0) unnamed_addr #0 align 2 personality ptr @__gxx_personality_v0 {
  %2 = getelementptr inbounds i8, ptr %0, i64 192
  tail call void @_ZN20Vmycpu_top___024rootD1Ev(ptr noundef nonnull align 64 dereferenceable(19328) %2) #10
  %3 = getelementptr inbounds i8, ptr %0, i64 24
  invoke void @_ZN9VlDeleter9deleteAllEv(ptr noundef nonnull align 8 dereferenceable(128) %3)
          to label %4 unwind label %22

4:                                                ; preds = %1
  %5 = getelementptr inbounds i8, ptr %0, i64 48
  %6 = tail call ptr @llvm.ptr.annotation.p0.p0(ptr nonnull %5, ptr nonnull @.str, ptr nonnull @.str.1, i32 1731, ptr null)
  %7 = load ptr, ptr %6, align 8
  %.not.i.i.i.i = icmp eq ptr %7, null
  br i1 %.not.i.i.i.i, label %_ZNSt6vectorIP11VlDeletableSaIS1_EED2Ev.exit.i, label %8

8:                                                ; preds = %4
  %9 = getelementptr inbounds i8, ptr %6, i64 16
  %10 = load ptr, ptr %9, align 8
  %11 = ptrtoint ptr %10 to i64
  %12 = ptrtoint ptr %7 to i64
  %13 = sub i64 %11, %12
  tail call void @_ZdlPvm(ptr noundef nonnull %7, i64 noundef %13) #11
  br label %_ZNSt6vectorIP11VlDeletableSaIS1_EED2Ev.exit.i

_ZNSt6vectorIP11VlDeletableSaIS1_EED2Ev.exit.i:   ; preds = %8, %4
  %14 = tail call ptr @llvm.ptr.annotation.p0.p0(ptr nonnull %3, ptr nonnull @.str, ptr nonnull @.str.1, i32 1729, ptr null)
  %15 = load ptr, ptr %14, align 8
  %.not.i.i.i1.i = icmp eq ptr %15, null
  br i1 %.not.i.i.i1.i, label %_ZN9VlDeleterD2Ev.exit, label %16

16:                                               ; preds = %_ZNSt6vectorIP11VlDeletableSaIS1_EED2Ev.exit.i
  %17 = getelementptr inbounds i8, ptr %14, i64 16
  %18 = load ptr, ptr %17, align 8
  %19 = ptrtoint ptr %18 to i64
  %20 = ptrtoint ptr %15 to i64
  %21 = sub i64 %19, %20
  tail call void @_ZdlPvm(ptr noundef nonnull %15, i64 noundef %21) #11
  br label %_ZN9VlDeleterD2Ev.exit

22:                                               ; preds = %1
  %23 = landingpad { ptr, i32 }
          catch ptr null
  %24 = extractvalue { ptr, i32 } %23, 0
  tail call void @__clang_call_terminate(ptr %24) #12
  unreachable

_ZN9VlDeleterD2Ev.exit:                           ; preds = %_ZNSt6vectorIP11VlDeletableSaIS1_EED2Ev.exit.i, %16
  tail call void @_ZN13VerilatedSymsD2Ev(ptr noundef nonnull align 8 dereferenceable(16) %0) #10
  ret void
}